Archive member included to satisfy reference by file (symbol)

/Applications/microchip/xc8/v2.05/avr/bin/../lib/gcc/avr/5.4.0/avr5/memx-const/libgcc.a(_exit.o)
                              /Applications/microchip/xc8/v2.05/avr/bin/../lib/gcc/avr/5.4.0/../../../../avr/lib/avr5/memx-const/crtatmega328p.o (exit)
/Applications/microchip/xc8/v2.05/avr/bin/../lib/gcc/avr/5.4.0/avr5/memx-const/libgcc.a(_copy_data.o)
                              build/default/production/ledBar.o (__do_copy_data)

Allocating common symbols
Common symbol       size              file

game1               0xd               build/default/production/ledBar.o

Discarded input sections

 .data          0x0000000000000000        0x0 /Applications/microchip/xc8/v2.05/avr/bin/../lib/gcc/avr/5.4.0/../../../../avr/lib/avr5/memx-const/crtatmega328p.o
 .bss           0x0000000000000000        0x0 /Applications/microchip/xc8/v2.05/avr/bin/../lib/gcc/avr/5.4.0/../../../../avr/lib/avr5/memx-const/crtatmega328p.o
 .text          0x0000000000000000        0x0 build/default/production/ledBar.o
 .data          0x0000000000000000        0x0 build/default/production/ledBar.o
 .bss           0x0000000000000000        0x0 build/default/production/ledBar.o
 .text.loseShot
                0x0000000000000000        0xc build/default/production/ledBar.o
 .text.random   0x0000000000000000       0x10 build/default/production/ledBar.o
 .text.ledTimerLoad
                0x0000000000000000        0xa build/default/production/ledBar.o
 .text.buzzTimerLoad
                0x0000000000000000        0x6 build/default/production/ledBar.o
 .text.periodTimerLoad
                0x0000000000000000        0x4 build/default/production/ledBar.o
 .text.periodTimer
                0x0000000000000000       0x14 build/default/production/ledBar.o
 .text.lcdCursor
                0x0000000000000000       0x14 build/default/production/ledBar.o
 .text          0x0000000000000000        0x0 /Applications/microchip/xc8/v2.05/avr/bin/../lib/gcc/avr/5.4.0/avr5/memx-const/libgcc.a(_exit.o)
 .data          0x0000000000000000        0x0 /Applications/microchip/xc8/v2.05/avr/bin/../lib/gcc/avr/5.4.0/avr5/memx-const/libgcc.a(_exit.o)
 .bss           0x0000000000000000        0x0 /Applications/microchip/xc8/v2.05/avr/bin/../lib/gcc/avr/5.4.0/avr5/memx-const/libgcc.a(_exit.o)
 .text.libgcc.mul
                0x0000000000000000        0x0 /Applications/microchip/xc8/v2.05/avr/bin/../lib/gcc/avr/5.4.0/avr5/memx-const/libgcc.a(_exit.o)
 .text.libgcc.div
                0x0000000000000000        0x0 /Applications/microchip/xc8/v2.05/avr/bin/../lib/gcc/avr/5.4.0/avr5/memx-const/libgcc.a(_exit.o)
 .text.libgcc   0x0000000000000000        0x0 /Applications/microchip/xc8/v2.05/avr/bin/../lib/gcc/avr/5.4.0/avr5/memx-const/libgcc.a(_exit.o)
 .text.libgcc.prologue
                0x0000000000000000        0x0 /Applications/microchip/xc8/v2.05/avr/bin/../lib/gcc/avr/5.4.0/avr5/memx-const/libgcc.a(_exit.o)
 .text.libgcc.builtins
                0x0000000000000000        0x0 /Applications/microchip/xc8/v2.05/avr/bin/../lib/gcc/avr/5.4.0/avr5/memx-const/libgcc.a(_exit.o)
 .text.libgcc.fmul
                0x0000000000000000        0x0 /Applications/microchip/xc8/v2.05/avr/bin/../lib/gcc/avr/5.4.0/avr5/memx-const/libgcc.a(_exit.o)
 .text.libgcc.fixed
                0x0000000000000000        0x0 /Applications/microchip/xc8/v2.05/avr/bin/../lib/gcc/avr/5.4.0/avr5/memx-const/libgcc.a(_exit.o)
 .text          0x0000000000000000        0x0 /Applications/microchip/xc8/v2.05/avr/bin/../lib/gcc/avr/5.4.0/avr5/memx-const/libgcc.a(_copy_data.o)
 .data          0x0000000000000000        0x0 /Applications/microchip/xc8/v2.05/avr/bin/../lib/gcc/avr/5.4.0/avr5/memx-const/libgcc.a(_copy_data.o)
 .bss           0x0000000000000000        0x0 /Applications/microchip/xc8/v2.05/avr/bin/../lib/gcc/avr/5.4.0/avr5/memx-const/libgcc.a(_copy_data.o)
 .text.libgcc.mul
                0x0000000000000000        0x0 /Applications/microchip/xc8/v2.05/avr/bin/../lib/gcc/avr/5.4.0/avr5/memx-const/libgcc.a(_copy_data.o)
 .text.libgcc.div
                0x0000000000000000        0x0 /Applications/microchip/xc8/v2.05/avr/bin/../lib/gcc/avr/5.4.0/avr5/memx-const/libgcc.a(_copy_data.o)
 .text.libgcc   0x0000000000000000        0x0 /Applications/microchip/xc8/v2.05/avr/bin/../lib/gcc/avr/5.4.0/avr5/memx-const/libgcc.a(_copy_data.o)
 .text.libgcc.prologue
                0x0000000000000000        0x0 /Applications/microchip/xc8/v2.05/avr/bin/../lib/gcc/avr/5.4.0/avr5/memx-const/libgcc.a(_copy_data.o)
 .text.libgcc.builtins
                0x0000000000000000        0x0 /Applications/microchip/xc8/v2.05/avr/bin/../lib/gcc/avr/5.4.0/avr5/memx-const/libgcc.a(_copy_data.o)
 .text.libgcc.fmul
                0x0000000000000000        0x0 /Applications/microchip/xc8/v2.05/avr/bin/../lib/gcc/avr/5.4.0/avr5/memx-const/libgcc.a(_copy_data.o)
 .text.libgcc.fixed
                0x0000000000000000        0x0 /Applications/microchip/xc8/v2.05/avr/bin/../lib/gcc/avr/5.4.0/avr5/memx-const/libgcc.a(_copy_data.o)

Memory Configuration

Name             Origin             Length             Attributes
text             0x0000000000000000 0x0000000000008000 xr
data             0x0000000000800100 0x0000000000000800 rw !x
eeprom           0x0000000000810000 0x0000000000000400 rw !x
fuse             0x0000000000820000 0x0000000000000003 rw !x
lock             0x0000000000830000 0x0000000000000400 rw !x
signature        0x0000000000840000 0x0000000000000400 rw !x
user_signatures  0x0000000000850000 0x0000000000000400 rw !x
*default*        0x0000000000000000 0xffffffffffffffff

Linker script and memory map

Address of section .data set to 0x800100
LOAD /Applications/microchip/xc8/v2.05/avr/bin/../lib/gcc/avr/5.4.0/../../../../avr/lib/avr5/memx-const/crtatmega328p.o
                0x0000000000000001                __MPLAB_BUILD = 0x1
LOAD build/default/production/ledBar.o
START GROUP
LOAD /Applications/microchip/xc8/v2.05/avr/bin/../lib/gcc/avr/5.4.0/../../../../avr/lib/avr5/memx-const/libm.a
END GROUP
START GROUP
LOAD /Applications/microchip/xc8/v2.05/avr/bin/../lib/gcc/avr/5.4.0/avr5/memx-const/libgcc.a
LOAD /Applications/microchip/xc8/v2.05/avr/bin/../lib/gcc/avr/5.4.0/../../../../avr/lib/avr5/memx-const/libm.a
LOAD /Applications/microchip/xc8/v2.05/avr/bin/../lib/gcc/avr/5.4.0/../../../../avr/lib/avr5/memx-const/libc.a
LOAD /Applications/microchip/xc8/v2.05/avr/bin/../lib/gcc/avr/5.4.0/../../../../avr/lib/avr5/memx-const/libatmega328p.a
END GROUP
                0x0000000000000000                __TEXT_REGION_ORIGIN__ = DEFINED (__TEXT_REGION_ORIGIN__)?__TEXT_REGION_ORIGIN__:0x0
                [0x0000000000800100]                __DATA_REGION_ORIGIN__ = DEFINED (__DATA_REGION_ORIGIN__)?__DATA_REGION_ORIGIN__:0x800060
                [0x0000000000008000]                __TEXT_REGION_LENGTH__ = DEFINED (__TEXT_REGION_LENGTH__)?__TEXT_REGION_LENGTH__:0x20000
                [0x0000000000000800]                __DATA_REGION_LENGTH__ = DEFINED (__DATA_REGION_LENGTH__)?__DATA_REGION_LENGTH__:0xffa0
                [0x0000000000000400]                __EEPROM_REGION_LENGTH__ = DEFINED (__EEPROM_REGION_LENGTH__)?__EEPROM_REGION_LENGTH__:0x10000
                [0x0000000000000003]                __FUSE_REGION_LENGTH__ = DEFINED (__FUSE_REGION_LENGTH__)?__FUSE_REGION_LENGTH__:0x400
                0x0000000000000400                __LOCK_REGION_LENGTH__ = DEFINED (__LOCK_REGION_LENGTH__)?__LOCK_REGION_LENGTH__:0x400
                0x0000000000000400                __SIGNATURE_REGION_LENGTH__ = DEFINED (__SIGNATURE_REGION_LENGTH__)?__SIGNATURE_REGION_LENGTH__:0x400
                0x0000000000000400                __USER_SIGNATURE_REGION_LENGTH__ = DEFINED (__USER_SIGNATURE_REGION_LENGTH__)?__USER_SIGNATURE_REGION_LENGTH__:0x400

.hash
 *(.hash)

.dynsym
 *(.dynsym)

.dynstr
 *(.dynstr)

.gnu.version
 *(.gnu.version)

.gnu.version_d
 *(.gnu.version_d)

.gnu.version_r
 *(.gnu.version_r)

.rel.init
 *(.rel.init)

.rela.init
 *(.rela.init)

.rel.text
 *(.rel.text)
 *(.rel.text.*)
 *(.rel.gnu.linkonce.t*)

.rela.text
 *(.rela.text)
 *(.rela.text.*)
 *(.rela.gnu.linkonce.t*)

.rel.fini
 *(.rel.fini)

.rela.fini
 *(.rela.fini)

.rel.rodata
 *(.rel.rodata)
 *(.rel.rodata.*)
 *(.rel.gnu.linkonce.r*)

.rela.rodata
 *(.rela.rodata)
 *(.rela.rodata.*)
 *(.rela.gnu.linkonce.r*)

.rel.data
 *(.rel.data)
 *(.rel.data.*)
 *(.rel.gnu.linkonce.d*)

.rela.data
 *(.rela.data)
 *(.rela.data.*)
 *(.rela.gnu.linkonce.d*)

.rel.ctors
 *(.rel.ctors)

.rela.ctors
 *(.rela.ctors)

.rel.dtors
 *(.rel.dtors)

.rela.dtors
 *(.rela.dtors)

.rel.got
 *(.rel.got)

.rela.got
 *(.rela.got)

.rel.bss
 *(.rel.bss)

.rela.bss
 *(.rela.bss)

.rel.plt
 *(.rel.plt)

.rela.plt
 *(.rela.plt)

.text           0x0000000000000000       0xc8
 *(.vectors)
 .vectors       0x0000000000000000       0x68 /Applications/microchip/xc8/v2.05/avr/bin/../lib/gcc/avr/5.4.0/../../../../avr/lib/avr5/memx-const/crtatmega328p.o
                0x0000000000000000                __vectors
                0x0000000000000000                __vector_default
 *(.vectors)
 *(.progmem.gcc*)
 *(.dinit)
 .dinit         0x0000000000000068        0xc data_init
                0x0000000000000074                . = ALIGN (0x2)
                0x0000000000000074                __trampolines_start = .
 *(.trampolines)
 .trampolines   0x0000000000000074        0x0 linker stubs
 *(.trampolines*)
                0x0000000000000074                __trampolines_end = .
 *libprintf_flt.a:*(.progmem.data)
 *libc.a:*(.progmem.data)
                0x0000000000000074                . = ALIGN (0x2)
 *(.jumptables)
 *(.jumptables*)
 *(.lowtext)
 *(.lowtext*)
                0x0000000000000074                __ctors_start = .
 *(.ctors)
                0x0000000000000074                __ctors_end = .
                0x0000000000000074                __dtors_start = .
 *(.dtors)
                0x0000000000000074                __dtors_end = .
 SORT(*)(.ctors)
 SORT(*)(.dtors)
 *(.init0)
 .init0         0x0000000000000074        0x0 /Applications/microchip/xc8/v2.05/avr/bin/../lib/gcc/avr/5.4.0/../../../../avr/lib/avr5/memx-const/crtatmega328p.o
                0x0000000000000074                __init
 *(.init0)
 *(.init1)
 *(.init1)
 *(.init2)
 .init2         0x0000000000000074        0xc /Applications/microchip/xc8/v2.05/avr/bin/../lib/gcc/avr/5.4.0/../../../../avr/lib/avr5/memx-const/crtatmega328p.o
 *(.init2)
 *(.init3)
 *(.init3)
 *(.init4)
 .init4         0x0000000000000080       0x3c /Applications/microchip/xc8/v2.05/avr/bin/../lib/gcc/avr/5.4.0/avr5/memx-const/libgcc.a(_copy_data.o)
                0x0000000000000080                __do_copy_data
                0x00000000000000ae                __do_clear_bss
 *(.init4)
 *(.init5)
 *(.init5)
 *(.init6)
 *(.init6)
 *(.init7)
 *(.init7)
 *(.init8)
 *(.init8)
 *(.init9)
 .init9         0x00000000000000bc        0x8 /Applications/microchip/xc8/v2.05/avr/bin/../lib/gcc/avr/5.4.0/../../../../avr/lib/avr5/memx-const/crtatmega328p.o
 *(.init9)
                0x00000000000000c4                . = ALIGN (0x2)
 *(.fini9)
 .fini9         0x00000000000000c4        0x0 /Applications/microchip/xc8/v2.05/avr/bin/../lib/gcc/avr/5.4.0/avr5/memx-const/libgcc.a(_exit.o)
                0x00000000000000c4                exit
                0x00000000000000c4                _exit
 *(.fini9)
 *(.fini8)
 *(.fini8)
 *(.fini7)
 *(.fini7)
 *(.fini6)
 *(.fini6)
 *(.fini5)
 *(.fini5)
 *(.fini4)
 *(.fini4)
 *(.fini3)
 *(.fini3)
 *(.fini2)
 *(.fini2)
 *(.fini1)
 *(.fini1)
 *(.fini0)
 .fini0         0x00000000000000c4        0x4 /Applications/microchip/xc8/v2.05/avr/bin/../lib/gcc/avr/5.4.0/avr5/memx-const/libgcc.a(_exit.o)
 *(.fini0)
                0x00000000000000c8                _etext = .

.data           0x0000000000800100        0x0 load address 0x00000000000000c8
                [!provide]                        PROVIDE (__data_start, .)
 *(.gnu.linkonce.d*)
 *(.gnu.linkonce.r*)
                0x0000000000800100                . = ALIGN (0x2)
                0x0000000000800100                _edata = .
                [!provide]                        PROVIDE (__data_end, .)

.bss            0x0000000000800100        0xd
                [!provide]                        PROVIDE (__bss_start, .)
 *(COMMON)
 COMMON         0x0000000000800100        0xd build/default/production/ledBar.o
                0x0000000000800100                game1
                [!provide]                        PROVIDE (__bss_end, .)
                0x00000000000000c8                __data_load_start = LOADADDR (.data)
                0x00000000000000c8                __data_load_end = (__data_load_start + SIZEOF (.data))

.noinit         0x000000000080010d        0x0
                [!provide]                        PROVIDE (__noinit_start, .)
 *(.noinit*)
                [!provide]                        PROVIDE (__noinit_end, .)
                0x000000000080010d                _end = .

.eeprom         0x0000000000810000        0x0
 *(.eeprom*)
                0x0000000000810000                __eeprom_end = .

.fuse
 *(.fuse)
 *(.lfuse)
 *(.hfuse)
 *(.efuse)

.lock
 *(.lock*)

.signature
 *(.signature*)

.user_signatures
 *(.user_signatures*)

.stab
 *(.stab)

.stabstr
 *(.stabstr)

.stab.excl
 *(.stab.excl)

.stab.exclstr
 *(.stab.exclstr)

.stab.index
 *(.stab.index)

.stab.indexstr
 *(.stab.indexstr)

.comment        0x0000000000000000       0x2e
 *(.comment)
 .comment       0x0000000000000000       0x2e build/default/production/ledBar.o
                                         0x2f (size before relaxing)

.note.gnu.build-id
 *(.note.gnu.build-id)

.debug
 *(.debug)

.line
 *(.line)

.debug_srcinfo
 *(.debug_srcinfo)

.debug_sfnames
 *(.debug_sfnames)

.debug_aranges  0x0000000000000000      0x108
 *(.debug_aranges)
 .debug_aranges
                0x0000000000000000      0x108 build/default/production/ledBar.o

.debug_pubnames
 *(.debug_pubnames)

.debug_info     0x0000000000000000     0x1aef
 *(.debug_info .gnu.linkonce.wi.*)
 .debug_info    0x0000000000000000      0x5f4 /Applications/microchip/xc8/v2.05/avr/bin/../lib/gcc/avr/5.4.0/../../../../avr/lib/avr5/memx-const/crtatmega328p.o
 .debug_info    0x00000000000005f4     0x14fb build/default/production/ledBar.o

.debug_abbrev   0x0000000000000000      0x848
 *(.debug_abbrev)
 .debug_abbrev  0x0000000000000000      0x5a2 /Applications/microchip/xc8/v2.05/avr/bin/../lib/gcc/avr/5.4.0/../../../../avr/lib/avr5/memx-const/crtatmega328p.o
 .debug_abbrev  0x00000000000005a2      0x2a6 build/default/production/ledBar.o

.debug_line     0x0000000000000000      0x879
 *(.debug_line .debug_line.* .debug_line_end)
 .debug_line    0x0000000000000000       0x1a /Applications/microchip/xc8/v2.05/avr/bin/../lib/gcc/avr/5.4.0/../../../../avr/lib/avr5/memx-const/crtatmega328p.o
 .debug_line    0x000000000000001a      0x85f build/default/production/ledBar.o

.debug_frame    0x0000000000000000      0x348
 *(.debug_frame)
 .debug_frame   0x0000000000000000      0x348 build/default/production/ledBar.o

.debug_str      0x0000000000000000      0x211
 *(.debug_str)
 .debug_str     0x0000000000000000      0x208 /Applications/microchip/xc8/v2.05/avr/bin/../lib/gcc/avr/5.4.0/../../../../avr/lib/avr5/memx-const/crtatmega328p.o
 .debug_str     0x0000000000000208        0x9 build/default/production/ledBar.o

.debug_loc      0x0000000000000000      0x6d2
 *(.debug_loc)
 .debug_loc     0x0000000000000000      0x6d2 build/default/production/ledBar.o

.debug_macinfo
 *(.debug_macinfo)

.debug_weaknames
 *(.debug_weaknames)

.debug_funcnames
 *(.debug_funcnames)

.debug_typenames
 *(.debug_typenames)

.debug_varnames
 *(.debug_varnames)

.debug_pubtypes
 *(.debug_pubtypes)

.debug_ranges   0x0000000000000000       0xf8
 *(.debug_ranges)
 .debug_ranges  0x0000000000000000       0xf8 build/default/production/ledBar.o

.debug_macro
 *(.debug_macro)
OUTPUT(dist/default/production/ledBar.X.production.elf elf32-avr)
LOAD linker stubs
LOAD data_init

.text           0x0000000000000828        0x4
 .text          0x0000000000000828        0x4 /Applications/microchip/xc8/v2.05/avr/bin/../lib/gcc/avr/5.4.0/../../../../avr/lib/avr5/memx-const/crtatmega328p.o
                0x0000000000000828                __vector_20
                0x0000000000000828                __vector_24
                0x0000000000000828                __vector_12
                0x0000000000000828                __bad_interrupt
                0x0000000000000828                __vector_6
                0x0000000000000828                __vector_3
                0x0000000000000828                __vector_23
                0x0000000000000828                __vector_25
                0x0000000000000828                __vector_13
                0x0000000000000828                __vector_17
                0x0000000000000828                __vector_19
                0x0000000000000828                __vector_7
                0x0000000000000828                __vector_4
                0x0000000000000828                __vector_9
                0x0000000000000828                __vector_2
                0x0000000000000828                __vector_21
                0x0000000000000828                __vector_15
                0x0000000000000828                __vector_8
                0x0000000000000828                __vector_14
                0x0000000000000828                __vector_10
                0x0000000000000828                __vector_16
                0x0000000000000828                __vector_18
                0x0000000000000828                __vector_22

.note.gnu.avr.deviceinfo
                0x0000000000000000       0x40
 .note.gnu.avr.deviceinfo
                0x0000000000000000       0x40 /Applications/microchip/xc8/v2.05/avr/bin/../lib/gcc/avr/5.4.0/../../../../avr/lib/avr5/memx-const/crtatmega328p.o

.text.pressed   0x00000000000006e6       0x26
 .text.pressed  0x00000000000006e6       0x26 build/default/production/ledBar.o
                0x00000000000006e6                pressed

.text.ledInc    0x000000000000070c       0x24
 .text.ledInc   0x000000000000070c       0x24 build/default/production/ledBar.o
                0x000000000000070c                ledInc

.text.gameReset
                0x00000000000007f0       0x14
 .text.gameReset
                0x00000000000007f0       0x14 build/default/production/ledBar.o
                0x00000000000007f0                gameReset

.text.winShot   0x0000000000000804       0x10
 .text.winShot  0x0000000000000804       0x10 build/default/production/ledBar.o
                0x0000000000000804                winShot

.text.won       0x00000000000007a8       0x18
 .text.won      0x00000000000007a8       0x18 build/default/production/ledBar.o
                0x00000000000007a8                won

.text.controlSet
                0x000000000000047a       0x80
 .text.controlSet
                0x000000000000047a       0x80 build/default/production/ledBar.o
                0x000000000000047a                controlSet

.text.gameSet   0x00000000000006aa       0x3c
 .text.gameSet  0x00000000000006aa       0x3c build/default/production/ledBar.o
                0x00000000000006aa                gameSet

.text.ledTimer  0x0000000000000752       0x1e
 .text.ledTimer
                0x0000000000000752       0x1e build/default/production/ledBar.o
                0x0000000000000752                ledTimer

.text.buzzTimer
                0x000000000000078e       0x1a
 .text.buzzTimer
                0x000000000000078e       0x1a build/default/production/ledBar.o
                0x000000000000078e                buzzTimer

.text.setup     0x0000000000000566       0x60
 .text.setup    0x0000000000000566       0x60 build/default/production/ledBar.o
                0x0000000000000566                setup

.text.habiliter
                0x0000000000000770       0x1e
 .text.habiliter
                0x0000000000000770       0x1e build/default/production/ledBar.o
                0x0000000000000770                habiliter

.text.charger   0x0000000000000814        0xa
 .text.charger  0x0000000000000814        0xa build/default/production/ledBar.o
                0x0000000000000814                charger

.text.chargerInst
                0x00000000000007c0       0x18
 .text.chargerInst
                0x00000000000007c0       0x18 build/default/production/ledBar.o
                0x00000000000007c0                chargerInst

.text.chargerD  0x000000000000081e        0xa
 .text.chargerD
                0x000000000000081e        0xa build/default/production/ledBar.o
                0x000000000000081e                chargerD

.text.lcdEcrire
                0x00000000000007d8       0x18
 .text.lcdEcrire
                0x00000000000007d8       0x18 build/default/production/ledBar.o
                0x00000000000007d8                lcdEcrire

.rodata         0x000000000080010d        0x6 load address 0x000000000000082c
 .rodata        0x000000000080010d        0x6 build/default/production/ledBar.o

.text.lcdInitialiser4
                0x00000000000004fa       0x6c
 .text.lcdInitialiser4
                0x00000000000004fa       0x6c build/default/production/ledBar.o
                0x00000000000004fa                lcdInitialiser4

.text.lcdPrint  0x0000000000000668       0x42
 .text.lcdPrint
                0x0000000000000668       0x42 build/default/production/ledBar.o
                0x0000000000000668                lcdPrint

.progmemx.data  0x00000000000000c8       0x84
 .progmemx.data
                0x00000000000000c8       0x84 build/default/production/ledBar.o

.text.lcdClear  0x0000000000000730       0x22
 .text.lcdClear
                0x0000000000000730       0x22 build/default/production/ledBar.o
                0x0000000000000730                lcdClear

.text.rScreen   0x00000000000002a0      0x130
 .text.rScreen  0x00000000000002a0      0x130 build/default/production/ledBar.o
                0x00000000000002a0                rScreen

.text.__vector_11
                0x000000000000014c      0x154
 .text.__vector_11
                0x000000000000014c      0x154 build/default/production/ledBar.o
                0x000000000000014c                __vector_11

.text.__vector_1
                0x00000000000003d0       0xaa
 .text.__vector_1
                0x00000000000003d0       0xaa build/default/production/ledBar.o
                0x00000000000003d0                __vector_1

.text.__vector_5
                0x00000000000005c6       0x5e
 .text.__vector_5
                0x00000000000005c6       0x5e build/default/production/ledBar.o
                0x00000000000005c6                __vector_5

.text.main      0x0000000000000624       0x44
 .text.main     0x0000000000000624       0x44 build/default/production/ledBar.o
                0x0000000000000624                main
